; Function Attrs: mustprogress uwtable
define hidden void @_ZN3ue211all_reportsERKNS_9TamaProtoE(ptr dead_on_unwind noalias writable sret(%"class.std::set") align 8 initializes((8, 12), (16, 24)) %0, ptr noundef nonnull readonly align 8 captures(none) dereferenceable(96) %1) local_unnamed_addr #0 personality ptr @__gxx_personality_v0 {
  %3 = alloca %"struct.std::_Rb_tree<unsigned int, unsigned int, std::_Identity<unsigned int>, std::less<unsigned int>>::_Alloc_node", align 8
  %4 = getelementptr inbounds nuw i8, ptr %0, i64 8
  store i32 0, ptr %4, align 8
  %5 = getelementptr inbounds nuw i8, ptr %0, i64 16
  store ptr null, ptr %5, align 8
  %6 = getelementptr inbounds nuw i8, ptr %0, i64 24
  store ptr %4, ptr %6, align 8
  %7 = getelementptr inbounds nuw i8, ptr %0, i64 32
  store ptr %4, ptr %7, align 8
  %8 = getelementptr inbounds nuw i8, ptr %0, i64 40
  store i64 0, ptr %8, align 8
  %9 = getelementptr inbounds nuw i8, ptr %1, i64 64
  %10 = load ptr, ptr %9, align 8
  %.not.i.i = icmp eq ptr %10, null
  br i1 %.not.i.i, label %_ZNSt3setIjSt4lessIjESaIjEEC2ERKS3_.exit, label %11

11:                                               ; preds = %2
  call void @llvm.lifetime.start.p0(i64 8, ptr nonnull %3) #22
  store ptr %0, ptr %3, align 8
  %12 = call noundef ptr @_ZNSt8_Rb_treeIjjSt9_IdentityIjESt4lessIjESaIjEE7_M_copyILb0ENS5_11_Alloc_nodeEEEPSt13_Rb_tree_nodeIjESA_PSt18_Rb_tree_node_baseRT0_(ptr noundef nonnull align 8 dereferenceable(48) %0, ptr noundef nonnull %10, ptr noundef nonnull %4, ptr noundef nonnull align 8 dereferenceable(8) %3)
  br label %.noexc.i.i

.noexc.i.i:                                       ; preds = %.noexc.i.i, %11
  %.0.i.i.i.i.i.i = phi ptr [ %14, %.noexc.i.i ], [ %12, %11 ]
  %13 = getelementptr inbounds nuw i8, ptr %.0.i.i.i.i.i.i, i64 16
  %14 = load ptr, ptr %13, align 8
  %.not.i.i.i.i.i.i = icmp eq ptr %14, null
  br i1 %.not.i.i.i.i.i.i, label %_ZNSt8_Rb_treeIjjSt9_IdentityIjESt4lessIjESaIjEE10_S_minimumEPSt18_Rb_tree_node_base.exit.i.i.i.i, label %.noexc.i.i, !llvm.loop !10

_ZNSt8_Rb_treeIjjSt9_IdentityIjESt4lessIjESaIjEE10_S_minimumEPSt18_Rb_tree_node_base.exit.i.i.i.i: ; preds = %.noexc.i.i
  store ptr %.0.i.i.i.i.i.i, ptr %6, align 8
  br label %15

15:                                               ; preds = %15, %_ZNSt8_Rb_treeIjjSt9_IdentityIjESt4lessIjESaIjEE10_S_minimumEPSt18_Rb_tree_node_base.exit.i.i.i.i
  %.0.i.i7.i.i.i.i = phi ptr [ %12, %_ZNSt8_Rb_treeIjjSt9_IdentityIjESt4lessIjESaIjEE10_S_minimumEPSt18_Rb_tree_node_base.exit.i.i.i.i ], [ %17, %15 ]
  %16 = getelementptr inbounds nuw i8, ptr %.0.i.i7.i.i.i.i, i64 24
  %17 = load ptr, ptr %16, align 8
  %.not.i.i8.i.i.i.i = icmp eq ptr %17, null
  br i1 %.not.i.i8.i.i.i.i, label %18, label %15, !llvm.loop !11

18:                                               ; preds = %15
  store ptr %.0.i.i7.i.i.i.i, ptr %7, align 8
  %19 = getelementptr inbounds nuw i8, ptr %1, i64 88
  %20 = load i64, ptr %19, align 8
  store i64 %20, ptr %8, align 8
  call void @llvm.lifetime.end.p0(i64 8, ptr nonnull %3) #22
  store ptr %12, ptr %5, align 8
  br label %_ZNSt3setIjSt4lessIjESaIjEEC2ERKS3_.exit

_ZNSt3setIjSt4lessIjESaIjEEC2ERKS3_.exit:         ; preds = %2, %18
  ret void
}